target datalayout = "e-m:e-p270:32:32-p271:32:32-p272:64:64-i64:64-i128:128-f80:128-n8:16:32:64-S128"
target triple = "x86_64-pc-linux-gnu"

%union._GMutex = type { ptr }
%struct._async_dns_queue_msg = type { %union.anon.4, i32 }
%union.anon.4 = type { i32, [12 x i8] }

@name_resolve_concurrency = internal global i32 500, align 4
@ghba_chan = internal global ptr null, align 8
@async_dns_queue_head = internal global ptr null, align 8
@async_dns_queue_mtx = internal global %union._GMutex zeroinitializer, align 8
@async_dns_in_flight = internal global i32 0, align 4

; Function Attrs: null_pointer_is_valid sspstrong uwtable
define internal void @process_async_dns_queue() #3 {
  %1 = alloca ptr, align 8
  %2 = alloca ptr, align 8
  %3 = alloca i32, align 4
  call void @llvm.lifetime.start.p0(i64 8, ptr %1) #16
  call void @llvm.lifetime.start.p0(i64 8, ptr %2) #16
  %4 = load ptr, ptr @async_dns_queue_head, align 8
  %5 = icmp eq ptr %4, null
  br i1 %5, label %6, label %7

6:                                                ; preds = %0
  store i32 1, ptr %3, align 4
  br label %56

7:                                                ; preds = %0
  %8 = call i32 @g_mutex_trylock(ptr noundef @async_dns_queue_mtx)
  %9 = icmp ne i32 %8, 0
  br i1 %9, label %11, label %10

10:                                               ; preds = %7
  store i32 1, ptr %3, align 4
  br label %56

11:                                               ; preds = %7
  %12 = load ptr, ptr @async_dns_queue_head, align 8
  %13 = call ptr @wmem_list_head(ptr noundef %12)
  store ptr %13, ptr %1, align 8
  br label %14

14:                                               ; preds = %52, %11
  %15 = load ptr, ptr %1, align 8
  %16 = icmp ne ptr %15, null
  br i1 %16, label %17, label %21

17:                                               ; preds = %14
  %18 = load i32, ptr @async_dns_in_flight, align 4
  %19 = load i32, ptr @name_resolve_concurrency, align 4
  %20 = icmp ule i32 %18, %19
  br label %21

21:                                               ; preds = %17, %14
  %22 = phi i1 [ false, %14 ], [ %20, %17 ]
  br i1 %22, label %23, label %55

23:                                               ; preds = %21
  %24 = load ptr, ptr %1, align 8
  %25 = call ptr @wmem_list_frame_data(ptr noundef %24)
  store ptr %25, ptr %2, align 8
  %26 = load ptr, ptr @async_dns_queue_head, align 8
  %27 = load ptr, ptr %1, align 8
  call void @wmem_list_remove_frame(ptr noundef %26, ptr noundef %27)
  %28 = load ptr, ptr %2, align 8
  %29 = getelementptr inbounds nuw %struct._async_dns_queue_msg, ptr %28, i32 0, i32 1
  %30 = load i32, ptr %29, align 4
  %31 = icmp eq i32 %30, 2
  br i1 %31, label %32, label %39

32:                                               ; preds = %23
  %33 = load ptr, ptr @ghba_chan, align 8
  %34 = load ptr, ptr %2, align 8
  %35 = getelementptr inbounds nuw %struct._async_dns_queue_msg, ptr %34, i32 0, i32 0
  %36 = load ptr, ptr %2, align 8
  call void @ares_gethostbyaddr(ptr noundef %33, ptr noundef %35, i32 noundef 4, i32 noundef 2, ptr noundef @c_ares_ghba_cb, ptr noundef %36)
  %37 = load i32, ptr @async_dns_in_flight, align 4
  %38 = add i32 %37, 1
  store i32 %38, ptr @async_dns_in_flight, align 4
  br label %52

39:                                               ; preds = %23
  %40 = load ptr, ptr %2, align 8
  %41 = getelementptr inbounds nuw %struct._async_dns_queue_msg, ptr %40, i32 0, i32 1
  %42 = load i32, ptr %41, align 4
  %43 = icmp eq i32 %42, 10
  br i1 %43, label %44, label %51

44:                                               ; preds = %39
  %45 = load ptr, ptr @ghba_chan, align 8
  %46 = load ptr, ptr %2, align 8
  %47 = getelementptr inbounds nuw %struct._async_dns_queue_msg, ptr %46, i32 0, i32 0
  %48 = load ptr, ptr %2, align 8
  call void @ares_gethostbyaddr(ptr noundef %45, ptr noundef %47, i32 noundef 16, i32 noundef 10, ptr noundef @c_ares_ghba_cb, ptr noundef %48)
  %49 = load i32, ptr @async_dns_in_flight, align 4
  %50 = add i32 %49, 1
  store i32 %50, ptr @async_dns_in_flight, align 4
  br label %51

51:                                               ; preds = %44, %39
  br label %52

52:                                               ; preds = %51, %32
  %53 = load ptr, ptr @async_dns_queue_head, align 8
  %54 = call ptr @wmem_list_head(ptr noundef %53)
  store ptr %54, ptr %1, align 8
  br label %14, !llvm.loop !21

55:                                               ; preds = %21
  call void @g_mutex_unlock(ptr noundef @async_dns_queue_mtx)
  store i32 0, ptr %3, align 4
  br label %56

56:                                               ; preds = %55, %10, %6
  call void @llvm.lifetime.end.p0(i64 8, ptr %2) #16
  call void @llvm.lifetime.end.p0(i64 8, ptr %1) #16
  %57 = load i32, ptr %3, align 4
  switch i32 %57, label %59 [
    i32 0, label %58
    i32 1, label %58
  ]

58:                                               ; preds = %56, %56
  ret void

59:                                               ; preds = %56
  unreachable
}