; Function Attrs: null_pointer_is_valid sspstrong uwtable
define internal fastcc void @process_async_dns_queue() unnamed_addr #3 {
  %1 = load ptr, ptr @async_dns_queue_head, align 8
  %2 = icmp eq ptr %1, null
  br i1 %2, label %31, label %3

3:                                                ; preds = %0
  %4 = tail call i32 @g_mutex_trylock(ptr noundef nonnull @async_dns_queue_mtx)
  %.not = icmp eq i32 %4, 0
  br i1 %.not, label %31, label %5

5:                                                ; preds = %3
  %6 = load ptr, ptr @async_dns_queue_head, align 8
  %7 = tail call ptr @wmem_list_head(ptr noundef %6)
  %8 = icmp ne ptr %7, null
  %9 = load i32, ptr @async_dns_in_flight, align 4
  %10 = load i32, ptr @name_resolve_concurrency, align 4
  %11 = icmp ule i32 %9, %10
  %12 = select i1 %8, i1 %11, i1 false
  br i1 %12, label %.lr.ph, label %._crit_edge

.lr.ph:                                           ; preds = %5, %23
  %.010 = phi ptr [ %25, %23 ], [ %7, %5 ]
  %13 = tail call ptr @wmem_list_frame_data(ptr noundef nonnull %.010)
  %14 = load ptr, ptr @async_dns_queue_head, align 8
  tail call void @wmem_list_remove_frame(ptr noundef %14, ptr noundef nonnull %.010)
  %15 = getelementptr inbounds nuw i8, ptr %13, i64 16
  %16 = load i32, ptr %15, align 4
  switch i32 %16, label %23 [
    i32 2, label %17
    i32 10, label %19
  ]

17:                                               ; preds = %.lr.ph
  %18 = load ptr, ptr @ghba_chan, align 8
  tail call void @ares_gethostbyaddr(ptr noundef %18, ptr noundef %13, i32 noundef 4, i32 noundef 2, ptr noundef nonnull @c_ares_ghba_cb, ptr noundef %13)
  br label %.sink.split

19:                                               ; preds = %.lr.ph
  %20 = load ptr, ptr @ghba_chan, align 8
  tail call void @ares_gethostbyaddr(ptr noundef %20, ptr noundef %13, i32 noundef 16, i32 noundef 10, ptr noundef nonnull @c_ares_ghba_cb, ptr noundef %13)
  br label %.sink.split

.sink.split:                                      ; preds = %17, %19
  %21 = load i32, ptr @async_dns_in_flight, align 4
  %22 = add i32 %21, 1
  store i32 %22, ptr @async_dns_in_flight, align 4
  br label %23

23:                                               ; preds = %.sink.split, %.lr.ph
  %24 = load ptr, ptr @async_dns_queue_head, align 8
  %25 = tail call ptr @wmem_list_head(ptr noundef %24)
  %26 = icmp ne ptr %25, null
  %27 = load i32, ptr @async_dns_in_flight, align 4
  %28 = load i32, ptr @name_resolve_concurrency, align 4
  %29 = icmp ule i32 %27, %28
  %30 = select i1 %26, i1 %29, i1 false
  br i1 %30, label %.lr.ph, label %._crit_edge, !llvm.loop !35

._crit_edge:                                      ; preds = %23, %5
  tail call void @g_mutex_unlock(ptr noundef nonnull @async_dns_queue_mtx)
  br label %31

31:                                               ; preds = %3, %0, %._crit_edge
  ret void
}